target datalayout = "e-m:e-p270:32:32-p271:32:32-p272:64:64-i64:64-i128:128-f80:128-n8:16:32:64-S128"
target triple = "x86_64-pc-linux-gnu"

%struct._packet_info = type { ptr, ptr, i32, i32, %struct.nstime_t, %struct.nstime_t, %struct.nstime_t, i8, ptr, ptr, ptr, ptr, %struct._address, %struct._address, %struct._address, %struct._address, %struct._address, %struct._address, i32, ptr, i8, [3 x i8], %struct.anon, i32, i32, i32, i32, ptr, i8, ptr, ptr, i16, i16, i32, i32, i16, i32, i32, ptr, ptr, ptr, i8, i8, i16, i16, i16, i32, i16, i16, ptr, ptr, ptr, ptr, ptr, i32, i32 }
%struct.nstime_t = type { i64, i32 }
%struct._address = type { i32, i32, ptr, ptr }
%struct.anon = type { i8, [3 x i8] }
%struct.wscbor_chunk_t = type { ptr, i32, i32, i32, ptr, ptr, i32, i8, i64 }

@hf_hdr_ctype_uint = internal global i32 0, align 4
@hf_hdr_ctype_tstr = internal global i32 0, align 4

; Function Attrs: null_pointer_is_valid sspstrong uwtable
define internal i32 @dissect_header_ctype(ptr noundef %0, ptr noundef %1, ptr noundef %2, ptr noundef %3) #0 {
  %5 = alloca ptr, align 8
  %6 = alloca ptr, align 8
  %7 = alloca ptr, align 8
  %8 = alloca ptr, align 8
  %9 = alloca i32, align 4
  %10 = alloca ptr, align 8
  %11 = alloca ptr, align 8
  store ptr %0, ptr %5, align 8
  store ptr %1, ptr %6, align 8
  store ptr %2, ptr %7, align 8
  store ptr %3, ptr %8, align 8
  call void @llvm.lifetime.start.p0(i64 4, ptr %9) #12
  store i32 0, ptr %9, align 4
  call void @llvm.lifetime.start.p0(i64 8, ptr %10) #12
  %12 = load ptr, ptr %6, align 8
  %13 = getelementptr inbounds nuw %struct._packet_info, ptr %12, i32 0, i32 51
  %14 = load ptr, ptr %13, align 8
  %15 = load ptr, ptr %5, align 8
  %16 = call ptr @wscbor_chunk_read(ptr noundef %14, ptr noundef %15, ptr noundef %9)
  store ptr %16, ptr %10, align 8
  %17 = load ptr, ptr %10, align 8
  %18 = getelementptr inbounds nuw %struct.wscbor_chunk_t, ptr %17, i32 0, i32 6
  %19 = load i32, ptr %18, align 8
  switch i32 %19, label %40 [
    i32 0, label %20
    i32 3, label %33
  ]

20:                                               ; preds = %4
  call void @llvm.lifetime.start.p0(i64 8, ptr %11) #12
  %21 = load ptr, ptr %6, align 8
  %22 = getelementptr inbounds nuw %struct._packet_info, ptr %21, i32 0, i32 51
  %23 = load ptr, ptr %22, align 8
  %24 = load ptr, ptr %10, align 8
  %25 = call ptr @wscbor_require_uint64(ptr noundef %23, ptr noundef %24)
  store ptr %25, ptr %11, align 8
  %26 = load ptr, ptr %7, align 8
  %27 = load i32, ptr @hf_hdr_ctype_uint, align 4
  %28 = load ptr, ptr %6, align 8
  %29 = load ptr, ptr %5, align 8
  %30 = load ptr, ptr %10, align 8
  %31 = load ptr, ptr %11, align 8
  %32 = call ptr @proto_tree_add_cbor_uint64(ptr noundef %26, i32 noundef %27, ptr noundef %28, ptr noundef %29, ptr noundef %30, ptr noundef %31)
  call void @llvm.lifetime.end.p0(i64 8, ptr %11) #12
  br label %41

33:                                               ; preds = %4
  %34 = load ptr, ptr %7, align 8
  %35 = load i32, ptr @hf_hdr_ctype_tstr, align 4
  %36 = load ptr, ptr %6, align 8
  %37 = load ptr, ptr %5, align 8
  %38 = load ptr, ptr %10, align 8
  %39 = call ptr @proto_tree_add_cbor_tstr(ptr noundef %34, i32 noundef %35, ptr noundef %36, ptr noundef %37, ptr noundef %38)
  br label %41

40:                                               ; preds = %4
  br label %41

41:                                               ; preds = %40, %33, %20
  %42 = load i32, ptr %9, align 4
  call void @llvm.lifetime.end.p0(i64 8, ptr %10) #12
  call void @llvm.lifetime.end.p0(i64 4, ptr %9) #12
  ret i32 %42
}